; Function Attrs: nounwind uwtable
define ptr @l_Lean_AssocList_foldlM___at_Lean_Meta_FVarSubst_domain___spec__1___boxed(ptr noundef %0, ptr noundef %1) local_unnamed_addr #0 {
  br label %3

3:                                                ; preds = %lean_alloc_ctor.exit.i, %2
  %.011.i = phi ptr [ %1, %2 ], [ %17, %lean_alloc_ctor.exit.i ]
  %.0.i = phi ptr [ %0, %2 ], [ %26, %lean_alloc_ctor.exit.i ]
  %4 = ptrtoint ptr %.011.i to i64
  %5 = and i64 %4, 1
  %.not.i.i = icmp eq i64 %5, 0
  br i1 %.not.i.i, label %9, label %6

6:                                                ; preds = %3
  %7 = lshr i64 %4, 1
  %8 = trunc i64 %7 to i32
  br label %lean_obj_tag.exit.i

9:                                                ; preds = %3
  %10 = getelementptr i8, ptr %.011.i, i64 4
  %.val.i.i = load i32, ptr %10, align 4
  %11 = lshr i32 %.val.i.i, 24
  br label %lean_obj_tag.exit.i

lean_obj_tag.exit.i:                              ; preds = %9, %6
  %.0.i.i = phi i32 [ %8, %6 ], [ %11, %9 ]
  %12 = icmp eq i32 %.0.i.i, 0
  br i1 %12, label %l_Lean_AssocList_foldlM___at_Lean_Meta_FVarSubst_domain___spec__1.exit, label %13

13:                                               ; preds = %lean_obj_tag.exit.i
  %14 = getelementptr inbounds nuw i8, ptr %.011.i, i64 8
  %15 = load ptr, ptr %14, align 8, !tbaa !10
  %16 = getelementptr inbounds nuw i8, ptr %.011.i, i64 24
  %17 = load ptr, ptr %16, align 8, !tbaa !10
  %18 = ptrtoint ptr %15 to i64
  %19 = and i64 %18, 1
  %.not.i4 = icmp eq i64 %19, 0
  br i1 %.not.i4, label %20, label %lean_inc.exit.i

20:                                               ; preds = %13
  %.val.i12.i = load i32, ptr %15, align 4, !tbaa !4
  %21 = icmp sgt i32 %.val.i12.i, 0
  br i1 %21, label %22, label %24, !prof !9

22:                                               ; preds = %20
  %23 = add nuw i32 %.val.i12.i, 1
  store i32 %23, ptr %15, align 4, !tbaa !4
  br label %lean_inc.exit.i

24:                                               ; preds = %20
  %.not.i13.i = icmp eq i32 %.val.i12.i, 0
  br i1 %.not.i13.i, label %lean_inc.exit.i, label %25

25:                                               ; preds = %24
  tail call void @lean_inc_ref_cold(ptr noundef nonnull %15) #3
  br label %lean_inc.exit.i

lean_inc.exit.i:                                  ; preds = %25, %24, %22, %13
  tail call void @lean_inc_heartbeat() #3
  %26 = tail call noalias ptr @mi_malloc_small(i64 noundef 24) #3
  %27 = icmp eq ptr %26, null
  br i1 %27, label %28, label %lean_alloc_ctor.exit.i

28:                                               ; preds = %lean_inc.exit.i
  tail call void @lean_internal_panic_out_of_memory() #4
  unreachable

lean_alloc_ctor.exit.i:                           ; preds = %lean_inc.exit.i
  %29 = getelementptr inbounds nuw i8, ptr %26, i64 4
  store i32 1, ptr %26, align 4, !tbaa !4
  store i32 16908312, ptr %29, align 4
  %30 = getelementptr inbounds nuw i8, ptr %26, i64 8
  store ptr %15, ptr %30, align 8, !tbaa !10
  %31 = getelementptr inbounds nuw i8, ptr %26, i64 16
  store ptr %.0.i, ptr %31, align 8, !tbaa !10
  br label %3

l_Lean_AssocList_foldlM___at_Lean_Meta_FVarSubst_domain___spec__1.exit: ; preds = %lean_obj_tag.exit.i
  %32 = ptrtoint ptr %1 to i64
  %33 = and i64 %32, 1
  %.not = icmp eq i64 %33, 0
  br i1 %.not, label %34, label %lean_dec.exit

34:                                               ; preds = %l_Lean_AssocList_foldlM___at_Lean_Meta_FVarSubst_domain___spec__1.exit
  %35 = load i32, ptr %1, align 4, !tbaa !4
  %36 = icmp sgt i32 %35, 1
  br i1 %36, label %37, label %39, !prof !9

37:                                               ; preds = %34
  %38 = add nsw i32 %35, -1
  store i32 %38, ptr %1, align 4, !tbaa !4
  br label %lean_dec.exit

39:                                               ; preds = %34
  %.not.i = icmp eq i32 %35, 0
  br i1 %.not.i, label %lean_dec.exit, label %40

40:                                               ; preds = %39
  tail call void @lean_dec_ref_cold(ptr noundef nonnull %1) #3
  br label %lean_dec.exit

lean_dec.exit:                                    ; preds = %40, %39, %37, %l_Lean_AssocList_foldlM___at_Lean_Meta_FVarSubst_domain___spec__1.exit
  ret ptr %.0.i
}